; Function Attrs: null_pointer_is_valid sspstrong uwtable
define internal fastcc void @dissect_uftp_status(ptr noundef %0, ptr noundef %1, ptr noundef %2) unnamed_addr #0 {
  %4 = tail call i32 @tvb_reported_length(ptr noundef %0)
  %5 = icmp ult i32 %4, 8
  br i1 %5, label %6, label %9

6:                                                ; preds = %3
  %7 = tail call i32 @tvb_reported_length(ptr noundef %0)
  %8 = tail call ptr (ptr, ptr, ptr, ptr, i32, i32, ptr, ...) @proto_tree_add_expert_format(ptr noundef %2, ptr noundef %1, ptr noundef nonnull @ei_uftp_length_invalid, ptr noundef %0, i32 noundef 0, i32 noundef -1, ptr noundef nonnull @.str.427, i32 noundef %7)
  br label %52

9:                                                ; preds = %3
  %10 = tail call zeroext i8 @tvb_get_uint8(ptr noundef %0, i32 noundef 1)
  %11 = zext i8 %10 to i32
  %12 = shl nuw nsw i32 %11, 2
  %13 = tail call i32 @tvb_reported_length(ptr noundef %0)
  %14 = icmp slt i32 %13, %12
  %15 = icmp ult i8 %10, 2
  %or.cond = select i1 %14, i1 true, i1 %15
  br i1 %or.cond, label %16, label %19

16:                                               ; preds = %9
  %17 = tail call i32 @tvb_reported_length(ptr noundef %0)
  %18 = tail call ptr (ptr, ptr, ptr, ptr, i32, i32, ptr, ...) @proto_tree_add_expert_format(ptr noundef %2, ptr noundef %1, ptr noundef nonnull @ei_uftp_length_invalid, ptr noundef %0, i32 noundef 0, i32 noundef -1, ptr noundef nonnull @.str.428, i32 noundef %17, i32 noundef %12)
  br label %52

19:                                               ; preds = %9
  %20 = tail call zeroext i16 @tvb_get_ntohs(ptr noundef %0, i32 noundef 2)
  %21 = tail call zeroext i16 @tvb_get_ntohs(ptr noundef %0, i32 noundef 4)
  %22 = getelementptr inbounds nuw i8, ptr %1, i64 8
  %23 = load ptr, ptr %22, align 8
  %24 = zext i16 %20 to i32
  %25 = zext i16 %21 to i32
  tail call void (ptr, i32, ptr, ...) @col_append_fstr(ptr noundef %23, i32 noundef 25, ptr noundef nonnull @.str.437, i32 noundef %24, i32 noundef %25)
  %26 = load i32, ptr @hf_uftp_status, align 4
  %27 = tail call ptr @proto_tree_add_item(ptr noundef %2, i32 noundef %26, ptr noundef %0, i32 noundef 0, i32 noundef -1, i32 noundef 0)
  %28 = load i32, ptr @ett_uftp_status, align 4
  %29 = tail call ptr @proto_item_add_subtree(ptr noundef %27, i32 noundef %28)
  %30 = load i32, ptr @hf_uftp_status_func, align 4
  %31 = tail call ptr @proto_tree_add_item(ptr noundef %29, i32 noundef %30, ptr noundef %0, i32 noundef 0, i32 noundef 1, i32 noundef 0)
  %32 = load i32, ptr @hf_uftp_status_hlen, align 4
  %33 = tail call ptr (ptr, i32, ptr, i32, i32, i32, ptr, ...) @proto_tree_add_uint_format_value(ptr noundef %29, i32 noundef %32, ptr noundef %0, i32 noundef 1, i32 noundef 1, i32 noundef %12, ptr noundef nonnull @.str.429, i32 noundef %12, i32 noundef %11)
  %34 = load i32, ptr @hf_uftp_status_file_id, align 4
  %35 = tail call ptr @proto_tree_add_item(ptr noundef %29, i32 noundef %34, ptr noundef %0, i32 noundef 2, i32 noundef 2, i32 noundef 0)
  %36 = load i32, ptr @hf_uftp_status_section, align 4
  %37 = tail call ptr @proto_tree_add_item(ptr noundef %29, i32 noundef %36, ptr noundef %0, i32 noundef 4, i32 noundef 2, i32 noundef 0)
  %38 = load i32, ptr @hf_uftp_status_reserved, align 4
  %39 = tail call ptr @proto_tree_add_item(ptr noundef %29, i32 noundef %38, ptr noundef %0, i32 noundef 6, i32 noundef 2, i32 noundef 0)
  %40 = add nsw i32 %12, -8
  br label %41

41:                                               ; preds = %46, %19
  %.071 = phi i32 [ %40, %19 ], [ %48, %46 ]
  %.070 = phi i32 [ 8, %19 ], [ %49, %46 ]
  %42 = icmp sgt i32 %.071, 0
  br i1 %42, label %43, label %.thread

43:                                               ; preds = %41
  %44 = tail call ptr @tvb_new_subset_length(ptr noundef %0, i32 noundef %.070, i32 noundef %.071)
  %45 = tail call zeroext i8 @tvb_get_uint8(ptr noundef %0, i32 noundef %.070)
  %cond = icmp eq i8 %45, 3
  br i1 %cond, label %46, label %.thread

46:                                               ; preds = %43
  %47 = tail call fastcc i32 @dissect_uftp_tfmccack(ptr noundef %44, ptr noundef %1, ptr noundef %29)
  %.not = icmp eq i32 %47, 0
  %48 = sub nsw i32 %.071, %47
  %49 = add i32 %47, %.070
  br i1 %.not, label %.thread, label %41

.thread:                                          ; preds = %43, %46, %41
  %50 = load i32, ptr @hf_uftp_status_naks, align 4
  %51 = tail call ptr @proto_tree_add_item(ptr noundef %29, i32 noundef %50, ptr noundef %0, i32 noundef %12, i32 noundef -1, i32 noundef 0)
  br label %52

52:                                               ; preds = %.thread, %16, %6
  ret void
}